	.file	"WhyNot.c"
	.text
Ltext0:
	.globl	_add
	.def	_add;	.scl	2;	.type	32;	.endef
_add:
LFB16:
	.file 1 "WhyNot.c"
	.loc 1 5 1
	.cfi_startproc
	pushl	%ebp
	.cfi_def_cfa_offset 8
	.cfi_offset 5, -8
	movl	%esp, %ebp
	.cfi_def_cfa_register 5
	pushl	%ebx
	subl	$36, %esp
	.cfi_offset 3, -12
	.loc 1 6 17
	movl	16(%ebp), %eax
	sall	$2, %eax
	movl	%eax, (%esp)
	call	_malloc
	movl	%eax, -16(%ebp)
LBB2:
	.loc 1 8 11
	movl	$0, -12(%ebp)
	.loc 1 8 2
	jmp	L2
L3:
	.loc 1 9 11 discriminator 3
	movl	-12(%ebp), %eax
	leal	0(,%eax,4), %edx
	movl	8(%ebp), %eax
	addl	%edx, %eax
	movl	(%eax), %ecx
	.loc 1 9 18 discriminator 3
	movl	-12(%ebp), %eax
	leal	0(,%eax,4), %edx
	movl	12(%ebp), %eax
	addl	%edx, %eax
	movl	(%eax), %edx
	.loc 1 9 4 discriminator 3
	movl	-12(%ebp), %eax
	leal	0(,%eax,4), %ebx
	movl	-16(%ebp), %eax
	addl	%ebx, %eax
	.loc 1 9 15 discriminator 3
	addl	%ecx, %edx
	.loc 1 9 8 discriminator 3
	movl	%edx, (%eax)
	.loc 1 8 26 discriminator 3
	addl	$1, -12(%ebp)
L2:
	.loc 1 8 2 discriminator 1
	movl	-12(%ebp), %eax
	cmpl	16(%ebp), %eax
	jl	L3
LBE2:
	.loc 1 14 9
	movl	-16(%ebp), %eax
	.loc 1 15 1
	addl	$36, %esp
	popl	%ebx
	.cfi_restore 3
	popl	%ebp
	.cfi_restore 5
	.cfi_def_cfa 4, 4
	ret
	.cfi_endproc
LFE16:
	.def	___main;	.scl	2;	.type	32;	.endef
	.section .rdata,"dr"
LC0:
	.ascii "%d\12\0"
	.text
	.globl	_main
	.def	_main;	.scl	2;	.type	32;	.endef
_main:
LFB17:
	.loc 1 19 1
	.cfi_startproc
	pushl	%ebp
	.cfi_def_cfa_offset 8
	.cfi_offset 5, -8
	movl	%esp, %ebp
	.cfi_def_cfa_register 5
	andl	$-16, %esp
	subl	$48, %esp
	.loc 1 19 1
	call	___main
LVL0:
	.loc 1 20 17
	movl	$12, (%esp)
	call	_malloc
	movl	%eax, 32(%esp)
	.loc 1 21 17
	movl	$12, (%esp)
	call	_malloc
	movl	%eax, 28(%esp)
LBB3:
	.loc 1 23 11
	movl	$0, 44(%esp)
	.loc 1 23 2
	jmp	L6
L7:
	.loc 1 24 4 discriminator 3
	movl	44(%esp), %eax
	leal	0(,%eax,4), %edx
	movl	32(%esp), %eax
	addl	%edx, %eax
	.loc 1 24 12 discriminator 3
	movl	44(%esp), %edx
	addl	%edx, %edx
	.loc 1 24 8 discriminator 3
	movl	%edx, (%eax)
	.loc 1 23 26 discriminator 3
	addl	$1, 44(%esp)
L6:
	.loc 1 23 2 discriminator 1
	cmpl	$2, 44(%esp)
	jle	L7
LBE3:
LBB4:
	.loc 1 27 11
	movl	$0, 40(%esp)
	.loc 1 27 2
	jmp	L8
L9:
	.loc 1 28 12 discriminator 3
	movl	40(%esp), %edx
	movl	%edx, %eax
	addl	%eax, %eax
	addl	%eax, %edx
	.loc 1 28 4 discriminator 3
	movl	40(%esp), %eax
	leal	0(,%eax,4), %ecx
	movl	28(%esp), %eax
	addl	%ecx, %eax
	.loc 1 28 16 discriminator 3
	subl	$2, %edx
	.loc 1 28 8 discriminator 3
	movl	%edx, (%eax)
	.loc 1 27 26 discriminator 3
	addl	$1, 40(%esp)
L8:
	.loc 1 27 2 discriminator 1
	cmpl	$2, 40(%esp)
	jle	L9
LBE4:
	.loc 1 31 17
	movl	$12, (%esp)
	call	_malloc
	movl	%eax, 24(%esp)
	.loc 1 33 6
	movl	$3, 8(%esp)
	movl	28(%esp), %eax
	movl	%eax, 4(%esp)
	movl	32(%esp), %eax
	movl	%eax, (%esp)
	call	_add
	movl	%eax, 24(%esp)
LBB5:
	.loc 1 35 11
	movl	$0, 36(%esp)
	.loc 1 35 2
	jmp	L10
L11:
	.loc 1 36 19 discriminator 3
	movl	36(%esp), %eax
	leal	0(,%eax,4), %edx
	movl	24(%esp), %eax
	addl	%edx, %eax
	.loc 1 36 3 discriminator 3
	movl	(%eax), %eax
	movl	%eax, 4(%esp)
	movl	$LC0, (%esp)
	call	_printf
	.loc 1 35 26 discriminator 3
	addl	$1, 36(%esp)
L10:
	.loc 1 35 2 discriminator 1
	cmpl	$2, 36(%esp)
	jle	L11
LBE5:
	.loc 1 39 2
	movl	32(%esp), %eax
	movl	%eax, (%esp)
	call	_free
	.loc 1 40 2
	movl	28(%esp), %eax
	movl	%eax, (%esp)
	call	_free
	.loc 1 41 2
	movl	24(%esp), %eax
	movl	%eax, (%esp)
	call	_free
	.loc 1 44 9
	movl	$0, %eax
	.loc 1 45 1
	leave
	.cfi_restore 5
	.cfi_def_cfa 4, 4
	ret
	.cfi_endproc
LFE17:
Letext0:
	.file 2 "C:/Program Files (x86)/mingw-w64/i686-8.1.0-posix-dwarf-rt_v6-rev0/mingw32/i686-w64-mingw32/include/stdio.h"
	.file 3 "C:/Program Files (x86)/mingw-w64/i686-8.1.0-posix-dwarf-rt_v6-rev0/mingw32/i686-w64-mingw32/include/crtdefs.h"
	.file 4 "C:/Program Files (x86)/mingw-w64/i686-8.1.0-posix-dwarf-rt_v6-rev0/mingw32/i686-w64-mingw32/include/stdlib.h"
	.file 5 "C:/Program Files (x86)/mingw-w64/i686-8.1.0-posix-dwarf-rt_v6-rev0/mingw32/i686-w64-mingw32/include/malloc.h"